target datalayout = "e-m:e-p270:32:32-p271:32:32-p272:64:64-i64:64-i128:128-f80:128-n8:16:32:64-S128"
target triple = "x86_64-unknown-linux-gnu"

%class.btGenericMemoryPool = type { ptr, ptr, ptr, i64, i64, i64, i64 }

; Function Attrs: mustprogress nounwind uwtable
define dso_local noundef i64 @_ZN19btGenericMemoryPool18allocate_from_poolEm(ptr noundef nonnull align 8 dereferenceable(56) %this, i64 noundef %num_elements) #1 align 2 {
entry:
  %retval = alloca i64, align 8
  %this.addr = alloca ptr, align 8
  %num_elements.addr = alloca i64, align 8
  %ptr = alloca i64, align 8
  store ptr %this, ptr %this.addr, align 8
  store i64 %num_elements, ptr %num_elements.addr, align 8
  %this1 = load ptr, ptr %this.addr, align 8
  %m_allocated_count = getelementptr inbounds %class.btGenericMemoryPool, ptr %this1, i32 0, i32 3
  %0 = load i64, ptr %m_allocated_count, align 8
  %1 = load i64, ptr %num_elements.addr, align 8
  %add = add i64 %0, %1
  %m_max_element_count = getelementptr inbounds %class.btGenericMemoryPool, ptr %this1, i32 0, i32 6
  %2 = load i64, ptr %m_max_element_count, align 8
  %cmp = icmp ugt i64 %add, %2
  br i1 %cmp, label %if.then, label %if.end

if.then:                                          ; preds = %entry
  store i64 4294967295, ptr %retval, align 8
  br label %return

if.end:                                           ; preds = %entry
  %m_allocated_count2 = getelementptr inbounds %class.btGenericMemoryPool, ptr %this1, i32 0, i32 3
  %3 = load i64, ptr %m_allocated_count2, align 8
  store i64 %3, ptr %ptr, align 8
  %4 = load i64, ptr %num_elements.addr, align 8
  %m_allocated_sizes = getelementptr inbounds %class.btGenericMemoryPool, ptr %this1, i32 0, i32 2
  %5 = load ptr, ptr %m_allocated_sizes, align 8
  %m_allocated_count3 = getelementptr inbounds %class.btGenericMemoryPool, ptr %this1, i32 0, i32 3
  %6 = load i64, ptr %m_allocated_count3, align 8
  %arrayidx = getelementptr inbounds i64, ptr %5, i64 %6
  store i64 %4, ptr %arrayidx, align 8
  %7 = load i64, ptr %num_elements.addr, align 8
  %m_allocated_count4 = getelementptr inbounds %class.btGenericMemoryPool, ptr %this1, i32 0, i32 3
  %8 = load i64, ptr %m_allocated_count4, align 8
  %add5 = add i64 %8, %7
  store i64 %add5, ptr %m_allocated_count4, align 8
  %9 = load i64, ptr %ptr, align 8
  store i64 %9, ptr %retval, align 8
  br label %return

return:                                           ; preds = %if.end, %if.then
  %10 = load i64, ptr %retval, align 8
  ret i64 %10
}

; Function Attrs: mustprogress nounwind uwtable
define linkonce_odr dso_local noundef ptr @_ZN19btGenericMemoryPool16get_element_dataEm(ptr noundef nonnull align 8 dereferenceable(56) %this, i64 noundef %element_index) #1 comdat align 2 {
entry:
  %this.addr = alloca ptr, align 8
  %element_index.addr = alloca i64, align 8
  store ptr %this, ptr %this.addr, align 8
  store i64 %element_index, ptr %element_index.addr, align 8
  %this1 = load ptr, ptr %this.addr, align 8
  %m_pool = getelementptr inbounds %class.btGenericMemoryPool, ptr %this1, i32 0, i32 0
  %0 = load ptr, ptr %m_pool, align 8
  %1 = load i64, ptr %element_index.addr, align 8
  %m_element_size = getelementptr inbounds %class.btGenericMemoryPool, ptr %this1, i32 0, i32 5
  %2 = load i64, ptr %m_element_size, align 8
  %mul = mul i64 %1, %2
  %arrayidx = getelementptr inbounds i8, ptr %0, i64 %mul
  ret ptr %arrayidx
}

; Function Attrs: mustprogress nounwind uwtable
define dso_local noundef i64 @_ZN19btGenericMemoryPool24allocate_from_free_nodesEm(ptr noundef nonnull align 8 dereferenceable(56) %this, i64 noundef %num_elements) #1 align 2 {
entry:
  %retval = alloca i64, align 8
  %this.addr = alloca ptr, align 8
  %num_elements.addr = alloca i64, align 8
  %ptr = alloca i64, align 8
  %revindex = alloca i64, align 8
  %finalsize = alloca i64, align 8
  store ptr %this, ptr %this.addr, align 8
  store i64 %num_elements, ptr %num_elements.addr, align 8
  %this1 = load ptr, ptr %this.addr, align 8
  store i64 4294967295, ptr %ptr, align 8
  %m_free_nodes_count = getelementptr inbounds %class.btGenericMemoryPool, ptr %this1, i32 0, i32 4
  %0 = load i64, ptr %m_free_nodes_count, align 8
  %cmp = icmp eq i64 %0, 0
  br i1 %cmp, label %if.then, label %if.end

if.then:                                          ; preds = %entry
  store i64 4294967295, ptr %retval, align 8
  br label %return

if.end:                                           ; preds = %entry
  %m_free_nodes_count2 = getelementptr inbounds %class.btGenericMemoryPool, ptr %this1, i32 0, i32 4
  %1 = load i64, ptr %m_free_nodes_count2, align 8
  store i64 %1, ptr %revindex, align 8
  br label %while.cond

while.cond:                                       ; preds = %if.end7, %if.end
  %2 = load i64, ptr %revindex, align 8
  %dec = add i64 %2, -1
  store i64 %dec, ptr %revindex, align 8
  %tobool = icmp ne i64 %2, 0
  br i1 %tobool, label %land.rhs, label %land.end

land.rhs:                                         ; preds = %while.cond
  %3 = load i64, ptr %ptr, align 8
  %cmp3 = icmp eq i64 %3, 4294967295
  br label %land.end

land.end:                                         ; preds = %land.rhs, %while.cond
  %4 = phi i1 [ false, %while.cond ], [ %cmp3, %land.rhs ]
  br i1 %4, label %while.body, label %while.end

while.body:                                       ; preds = %land.end
  %m_allocated_sizes = getelementptr inbounds %class.btGenericMemoryPool, ptr %this1, i32 0, i32 2
  %5 = load ptr, ptr %m_allocated_sizes, align 8
  %m_free_nodes = getelementptr inbounds %class.btGenericMemoryPool, ptr %this1, i32 0, i32 1
  %6 = load ptr, ptr %m_free_nodes, align 8
  %7 = load i64, ptr %revindex, align 8
  %arrayidx = getelementptr inbounds i64, ptr %6, i64 %7
  %8 = load i64, ptr %arrayidx, align 8
  %arrayidx4 = getelementptr inbounds i64, ptr %5, i64 %8
  %9 = load i64, ptr %arrayidx4, align 8
  %10 = load i64, ptr %num_elements.addr, align 8
  %cmp5 = icmp uge i64 %9, %10
  br i1 %cmp5, label %if.then6, label %if.end7

if.then6:                                         ; preds = %while.body
  %11 = load i64, ptr %revindex, align 8
  store i64 %11, ptr %ptr, align 8
  br label %if.end7

if.end7:                                          ; preds = %if.then6, %while.body
  br label %while.cond, !llvm.loop !5

while.end:                                        ; preds = %land.end
  %12 = load i64, ptr %ptr, align 8
  %cmp8 = icmp eq i64 %12, 4294967295
  br i1 %cmp8, label %if.then9, label %if.end10

if.then9:                                         ; preds = %while.end
  store i64 4294967295, ptr %retval, align 8
  br label %return

if.end10:                                         ; preds = %while.end
  %13 = load i64, ptr %ptr, align 8
  store i64 %13, ptr %revindex, align 8
  %m_free_nodes11 = getelementptr inbounds %class.btGenericMemoryPool, ptr %this1, i32 0, i32 1
  %14 = load ptr, ptr %m_free_nodes11, align 8
  %15 = load i64, ptr %revindex, align 8
  %arrayidx12 = getelementptr inbounds i64, ptr %14, i64 %15
  %16 = load i64, ptr %arrayidx12, align 8
  store i64 %16, ptr %ptr, align 8
  %m_allocated_sizes13 = getelementptr inbounds %class.btGenericMemoryPool, ptr %this1, i32 0, i32 2
  %17 = load ptr, ptr %m_allocated_sizes13, align 8
  %18 = load i64, ptr %ptr, align 8
  %arrayidx14 = getelementptr inbounds i64, ptr %17, i64 %18
  %19 = load i64, ptr %arrayidx14, align 8
  store i64 %19, ptr %finalsize, align 8
  %20 = load i64, ptr %num_elements.addr, align 8
  %21 = load i64, ptr %finalsize, align 8
  %sub = sub i64 %21, %20
  store i64 %sub, ptr %finalsize, align 8
  %22 = load i64, ptr %num_elements.addr, align 8
  %m_allocated_sizes15 = getelementptr inbounds %class.btGenericMemoryPool, ptr %this1, i32 0, i32 2
  %23 = load ptr, ptr %m_allocated_sizes15, align 8
  %24 = load i64, ptr %ptr, align 8
  %arrayidx16 = getelementptr inbounds i64, ptr %23, i64 %24
  store i64 %22, ptr %arrayidx16, align 8
  %25 = load i64, ptr %finalsize, align 8
  %cmp17 = icmp ugt i64 %25, 0
  br i1 %cmp17, label %if.then18, label %if.else

if.then18:                                        ; preds = %if.end10
  %26 = load i64, ptr %ptr, align 8
  %27 = load i64, ptr %num_elements.addr, align 8
  %add = add i64 %26, %27
  %m_free_nodes19 = getelementptr inbounds %class.btGenericMemoryPool, ptr %this1, i32 0, i32 1
  %28 = load ptr, ptr %m_free_nodes19, align 8
  %29 = load i64, ptr %revindex, align 8
  %arrayidx20 = getelementptr inbounds i64, ptr %28, i64 %29
  store i64 %add, ptr %arrayidx20, align 8
  %30 = load i64, ptr %finalsize, align 8
  %m_allocated_sizes21 = getelementptr inbounds %class.btGenericMemoryPool, ptr %this1, i32 0, i32 2
  %31 = load ptr, ptr %m_allocated_sizes21, align 8
  %32 = load i64, ptr %ptr, align 8
  %33 = load i64, ptr %num_elements.addr, align 8
  %add22 = add i64 %32, %33
  %arrayidx23 = getelementptr inbounds i64, ptr %31, i64 %add22
  store i64 %30, ptr %arrayidx23, align 8
  br label %if.end32

if.else:                                          ; preds = %if.end10
  %m_free_nodes24 = getelementptr inbounds %class.btGenericMemoryPool, ptr %this1, i32 0, i32 1
  %34 = load ptr, ptr %m_free_nodes24, align 8
  %m_free_nodes_count25 = getelementptr inbounds %class.btGenericMemoryPool, ptr %this1, i32 0, i32 4
  %35 = load i64, ptr %m_free_nodes_count25, align 8
  %sub26 = sub i64 %35, 1
  %arrayidx27 = getelementptr inbounds i64, ptr %34, i64 %sub26
  %36 = load i64, ptr %arrayidx27, align 8
  %m_free_nodes28 = getelementptr inbounds %class.btGenericMemoryPool, ptr %this1, i32 0, i32 1
  %37 = load ptr, ptr %m_free_nodes28, align 8
  %38 = load i64, ptr %revindex, align 8
  %arrayidx29 = getelementptr inbounds i64, ptr %37, i64 %38
  store i64 %36, ptr %arrayidx29, align 8
  %m_free_nodes_count30 = getelementptr inbounds %class.btGenericMemoryPool, ptr %this1, i32 0, i32 4
  %39 = load i64, ptr %m_free_nodes_count30, align 8
  %dec31 = add i64 %39, -1
  store i64 %dec31, ptr %m_free_nodes_count30, align 8
  br label %if.end32

if.end32:                                         ; preds = %if.else, %if.then18
  %40 = load i64, ptr %ptr, align 8
  store i64 %40, ptr %retval, align 8
  br label %return

return:                                           ; preds = %if.end32, %if.then9, %if.then
  %41 = load i64, ptr %retval, align 8
  ret i64 %41
}

; Function Attrs: mustprogress uwtable
define dso_local noundef ptr @_ZN19btGenericMemoryPool8allocateEm(ptr noundef nonnull align 8 dereferenceable(56) %this, i64 noundef %size_bytes) #2 align 2 {
entry:
  %retval = alloca ptr, align 8
  %this.addr = alloca ptr, align 8
  %size_bytes.addr = alloca i64, align 8
  %module = alloca i64, align 8
  %element_count = alloca i64, align 8
  %alloc_pos = alloca i64, align 8
  store ptr %this, ptr %this.addr, align 8
  store i64 %size_bytes, ptr %size_bytes.addr, align 8
  %this1 = load ptr, ptr %this.addr, align 8
  %0 = load i64, ptr %size_bytes.addr, align 8
  %m_element_size = getelementptr inbounds %class.btGenericMemoryPool, ptr %this1, i32 0, i32 5
  %1 = load i64, ptr %m_element_size, align 8
  %rem = urem i64 %0, %1
  store i64 %rem, ptr %module, align 8
  %2 = load i64, ptr %size_bytes.addr, align 8
  %m_element_size2 = getelementptr inbounds %class.btGenericMemoryPool, ptr %this1, i32 0, i32 5
  %3 = load i64, ptr %m_element_size2, align 8
  %div = udiv i64 %2, %3
  store i64 %div, ptr %element_count, align 8
  %4 = load i64, ptr %module, align 8
  %cmp = icmp ugt i64 %4, 0
  br i1 %cmp, label %if.then, label %if.end

if.then:                                          ; preds = %entry
  %5 = load i64, ptr %element_count, align 8
  %inc = add i64 %5, 1
  store i64 %inc, ptr %element_count, align 8
  br label %if.end

if.end:                                           ; preds = %if.then, %entry
  %6 = load i64, ptr %element_count, align 8
  %call = call noundef i64 @_ZN19btGenericMemoryPool24allocate_from_free_nodesEm(ptr noundef nonnull align 8 dereferenceable(56) %this1, i64 noundef %6)
  store i64 %call, ptr %alloc_pos, align 8
  %7 = load i64, ptr %alloc_pos, align 8
  %cmp3 = icmp ne i64 %7, 4294967295
  br i1 %cmp3, label %if.then4, label %if.end6

if.then4:                                         ; preds = %if.end
  %8 = load i64, ptr %alloc_pos, align 8
  %call5 = call noundef ptr @_ZN19btGenericMemoryPool16get_element_dataEm(ptr noundef nonnull align 8 dereferenceable(56) %this1, i64 noundef %8)
  store ptr %call5, ptr %retval, align 8
  br label %return

if.end6:                                          ; preds = %if.end
  %9 = load i64, ptr %element_count, align 8
  %call7 = call noundef i64 @_ZN19btGenericMemoryPool18allocate_from_poolEm(ptr noundef nonnull align 8 dereferenceable(56) %this1, i64 noundef %9)
  store i64 %call7, ptr %alloc_pos, align 8
  %10 = load i64, ptr %alloc_pos, align 8
  %cmp8 = icmp eq i64 %10, 4294967295
  br i1 %cmp8, label %if.then9, label %if.end10

if.then9:                                         ; preds = %if.end6
  store ptr null, ptr %retval, align 8
  br label %return

if.end10:                                         ; preds = %if.end6
  %11 = load i64, ptr %alloc_pos, align 8
  %call11 = call noundef ptr @_ZN19btGenericMemoryPool16get_element_dataEm(ptr noundef nonnull align 8 dereferenceable(56) %this1, i64 noundef %11)
  store ptr %call11, ptr %retval, align 8
  br label %return

return:                                           ; preds = %if.end10, %if.then9, %if.then4
  %12 = load ptr, ptr %retval, align 8
  ret ptr %12
}