; Function Attrs: mustprogress nofree norecurse nosync nounwind memory(readwrite, inaccessiblemem: none) uwtable
define dso_local noundef ptr @_ZN19btGenericMemoryPool8allocateEm(ptr nocapture noundef nonnull align 8 dereferenceable(56) %this, i64 noundef %size_bytes) local_unnamed_addr #0 align 2 {
entry:
  %m_element_size = getelementptr inbounds i8, ptr %this, i64 40
  %0 = load i64, ptr %m_element_size, align 8
  %rem = urem i64 %size_bytes, %0
  %div = udiv i64 %size_bytes, %0
  %cmp.not = icmp ne i64 %rem, 0
  %inc = zext i1 %cmp.not to i64
  %spec.select = add i64 %div, %inc
  %m_free_nodes_count.i = getelementptr inbounds i8, ptr %this, i64 32
  %1 = load i64, ptr %m_free_nodes_count.i, align 8
  %cmp.i = icmp eq i64 %1, 0
  br i1 %cmp.i, label %if.end6, label %while.cond.preheader.i

while.cond.preheader.i:                           ; preds = %entry
  %m_allocated_sizes.i = getelementptr inbounds i8, ptr %this, i64 16
  %2 = load ptr, ptr %m_allocated_sizes.i, align 8
  %m_free_nodes.i = getelementptr inbounds i8, ptr %this, i64 8
  %3 = load ptr, ptr %m_free_nodes.i, align 8
  br label %while.body.i

while.body.i:                                     ; preds = %while.body.i, %while.cond.preheader.i
  %revindex.019.i = phi i64 [ %1, %while.cond.preheader.i ], [ %dec.i, %while.body.i ]
  %dec.i = add i64 %revindex.019.i, -1
  %arrayidx.i = getelementptr inbounds i64, ptr %3, i64 %dec.i
  %4 = load i64, ptr %arrayidx.i, align 8
  %arrayidx4.i = getelementptr inbounds i64, ptr %2, i64 %4
  %5 = load i64, ptr %arrayidx4.i, align 8
  %cmp5.not.i = icmp ult i64 %5, %spec.select
  %spec.select.i = select i1 %cmp5.not.i, i64 4294967295, i64 %dec.i
  %tobool.i = icmp ne i64 %dec.i, 0
  %cmp3.i = icmp eq i64 %spec.select.i, 4294967295
  %6 = and i1 %tobool.i, %cmp3.i
  br i1 %6, label %while.body.i, label %while.end.i, !llvm.loop !5

while.end.i:                                      ; preds = %while.body.i
  br i1 %cmp3.i, label %if.end6, label %if.end10.i

if.end10.i:                                       ; preds = %while.end.i
  %arrayidx12.i = getelementptr inbounds i64, ptr %3, i64 %spec.select.i
  %7 = load i64, ptr %arrayidx12.i, align 8
  %arrayidx14.i = getelementptr inbounds i64, ptr %2, i64 %7
  %8 = load i64, ptr %arrayidx14.i, align 8
  store i64 %spec.select, ptr %arrayidx14.i, align 8
  %cmp17.not.i = icmp eq i64 %8, %spec.select
  br i1 %cmp17.not.i, label %if.else.i, label %if.then18.i

if.then18.i:                                      ; preds = %if.end10.i
  %sub.i = sub i64 %8, %spec.select
  %add.i = add i64 %7, %spec.select
  %9 = load ptr, ptr %m_free_nodes.i, align 8
  %arrayidx20.i = getelementptr inbounds i64, ptr %9, i64 %spec.select.i
  store i64 %add.i, ptr %arrayidx20.i, align 8
  %10 = load ptr, ptr %m_allocated_sizes.i, align 8
  %arrayidx23.i = getelementptr inbounds i64, ptr %10, i64 %add.i
  store i64 %sub.i, ptr %arrayidx23.i, align 8
  br label %_ZN19btGenericMemoryPool24allocate_from_free_nodesEm.exit

if.else.i:                                        ; preds = %if.end10.i
  %11 = load ptr, ptr %m_free_nodes.i, align 8
  %12 = load i64, ptr %m_free_nodes_count.i, align 8
  %13 = getelementptr i64, ptr %11, i64 %12
  %arrayidx27.i = getelementptr i8, ptr %13, i64 -8
  %14 = load i64, ptr %arrayidx27.i, align 8
  %arrayidx29.i = getelementptr inbounds i64, ptr %11, i64 %spec.select.i
  store i64 %14, ptr %arrayidx29.i, align 8
  %15 = load i64, ptr %m_free_nodes_count.i, align 8
  %dec31.i = add i64 %15, -1
  store i64 %dec31.i, ptr %m_free_nodes_count.i, align 8
  br label %_ZN19btGenericMemoryPool24allocate_from_free_nodesEm.exit

_ZN19btGenericMemoryPool24allocate_from_free_nodesEm.exit: ; preds = %if.then18.i, %if.else.i
  %cmp3.not = icmp eq i64 %7, 4294967295
  br i1 %cmp3.not, label %if.end6, label %if.then4

if.then4:                                         ; preds = %_ZN19btGenericMemoryPool24allocate_from_free_nodesEm.exit
  %16 = load ptr, ptr %this, align 8
  %17 = load i64, ptr %m_element_size, align 8
  %mul.i = mul i64 %17, %7
  %arrayidx.i7 = getelementptr inbounds i8, ptr %16, i64 %mul.i
  br label %return

if.end6:                                          ; preds = %while.end.i, %entry, %_ZN19btGenericMemoryPool24allocate_from_free_nodesEm.exit
  %m_allocated_count.i = getelementptr inbounds i8, ptr %this, i64 24
  %18 = load i64, ptr %m_allocated_count.i, align 8
  %add.i8 = add i64 %18, %spec.select
  %m_max_element_count.i = getelementptr inbounds i8, ptr %this, i64 48
  %19 = load i64, ptr %m_max_element_count.i, align 8
  %cmp.i9 = icmp ugt i64 %add.i8, %19
  br i1 %cmp.i9, label %return, label %_ZN19btGenericMemoryPool18allocate_from_poolEm.exit

_ZN19btGenericMemoryPool18allocate_from_poolEm.exit: ; preds = %if.end6
  %m_allocated_sizes.i10 = getelementptr inbounds i8, ptr %this, i64 16
  %20 = load ptr, ptr %m_allocated_sizes.i10, align 8
  %arrayidx.i11 = getelementptr inbounds i64, ptr %20, i64 %18
  store i64 %spec.select, ptr %arrayidx.i11, align 8
  %21 = load i64, ptr %m_allocated_count.i, align 8
  %add5.i = add i64 %21, %spec.select
  store i64 %add5.i, ptr %m_allocated_count.i, align 8
  %cmp8 = icmp eq i64 %18, 4294967295
  br i1 %cmp8, label %return, label %if.end10

if.end10:                                         ; preds = %_ZN19btGenericMemoryPool18allocate_from_poolEm.exit
  %22 = load ptr, ptr %this, align 8
  %23 = load i64, ptr %m_element_size, align 8
  %mul.i14 = mul i64 %23, %18
  %arrayidx.i15 = getelementptr inbounds i8, ptr %22, i64 %mul.i14
  br label %return

return:                                           ; preds = %if.end6, %_ZN19btGenericMemoryPool18allocate_from_poolEm.exit, %if.end10, %if.then4
  %retval.0 = phi ptr [ %arrayidx.i7, %if.then4 ], [ %arrayidx.i15, %if.end10 ], [ null, %_ZN19btGenericMemoryPool18allocate_from_poolEm.exit ], [ null, %if.end6 ]
  ret ptr %retval.0
}